; Function Attrs: mustprogress uwtable
define hidden void @_ZN2cv13wechat_qrcode5Align4cropERKNS_3MatEii(ptr dead_on_unwind noalias writable sret(%"class.cv::Mat") align 8 %0, ptr noundef nonnull align 8 dereferenceable(201) %1, ptr noundef nonnull align 8 dereferenceable(96) %2, i32 noundef %3, i32 noundef %4) local_unnamed_addr #2 align 2 personality ptr @__gxx_personality_v0 {
  %6 = alloca %"class.cv::MatExpr", align 8
  %7 = alloca %"class.cv::_InputArray", align 8
  %8 = alloca %"class.cv::_OutputArray", align 8
  %9 = alloca %"class.cv::_InputArray", align 8
  %10 = alloca %"class.cv::Scalar_", align 8
  %11 = load i32, ptr %2, align 8
  %12 = and i32 %11, 4095
  call void @_ZN2cv3Mat5zerosEiii(ptr dead_on_unwind nonnull writable sret(%"class.cv::MatExpr") align 8 %6, i32 noundef %4, i32 noundef %3, i32 noundef %12)
  call void @_ZN2cv3MatC1Ev(ptr noundef nonnull align 8 dereferenceable(96) %0) #10
  %13 = load ptr, ptr %6, align 8, !noalias !12
  %14 = load ptr, ptr %13, align 8
  %15 = getelementptr inbounds i8, ptr %14, i64 24
  %16 = load ptr, ptr %15, align 8
  invoke void %16(ptr noundef nonnull align 8 dereferenceable(8) %13, ptr noundef nonnull align 8 dereferenceable(352) %6, ptr noundef nonnull align 8 dereferenceable(96) %0, i32 noundef -1)
          to label %18 unwind label %.body

.body:                                            ; preds = %5
  %17 = landingpad { ptr, i32 }
          cleanup
  call void @_ZN2cv3MatD1Ev(ptr noundef nonnull align 8 dereferenceable(96) %0) #10
  call void @_ZN2cv7MatExprD2Ev(ptr noundef nonnull align 8 dereferenceable(352) %6) #10
  br label %39

18:                                               ; preds = %5
  %19 = getelementptr inbounds i8, ptr %6, i64 208
  call void @_ZN2cv3MatD1Ev(ptr noundef nonnull align 8 dereferenceable(96) %19) #10
  %20 = getelementptr inbounds i8, ptr %6, i64 112
  call void @_ZN2cv3MatD1Ev(ptr noundef nonnull align 8 dereferenceable(96) %20) #10
  %21 = getelementptr inbounds i8, ptr %6, i64 16
  call void @_ZN2cv3MatD1Ev(ptr noundef nonnull align 8 dereferenceable(96) %21) #10
  %22 = getelementptr inbounds i8, ptr %7, i64 16
  store i32 0, ptr %22, align 8
  %23 = getelementptr inbounds i8, ptr %7, i64 20
  store i32 0, ptr %23, align 4
  store i32 16842752, ptr %7, align 8
  %24 = getelementptr inbounds i8, ptr %7, i64 8
  store ptr %2, ptr %24, align 8
  %25 = getelementptr inbounds i8, ptr %8, i64 8
  %26 = getelementptr inbounds i8, ptr %8, i64 16
  store i64 0, ptr %26, align 8
  store i32 33619968, ptr %8, align 8
  store ptr %0, ptr %25, align 8
  %27 = getelementptr inbounds i8, ptr %9, i64 16
  store i32 0, ptr %27, align 8
  %28 = getelementptr inbounds i8, ptr %9, i64 20
  store i32 0, ptr %28, align 4
  store i32 16842752, ptr %9, align 8
  %29 = getelementptr inbounds i8, ptr %9, i64 8
  store ptr %1, ptr %29, align 8
  %30 = getelementptr inbounds i8, ptr %0, i64 64
  %31 = load ptr, ptr %30, align 8
  %32 = getelementptr inbounds i8, ptr %31, i64 4
  %33 = load i32, ptr %32, align 4
  %34 = load i32, ptr %31, align 4
  %.sroa.2.0.insert.ext.i = zext i32 %34 to i64
  %.sroa.2.0.insert.shift.i = shl nuw i64 %.sroa.2.0.insert.ext.i, 32
  %.sroa.0.0.insert.ext.i = zext i32 %33 to i64
  %.sroa.0.0.insert.insert.i = or disjoint i64 %.sroa.2.0.insert.shift.i, %.sroa.0.0.insert.ext.i
  store double 2.550000e+02, ptr %10, align 8
  %35 = getelementptr inbounds i8, ptr %10, i64 8
  call void @llvm.memset.p0.i64(ptr noundef nonnull align 8 dereferenceable(24) %35, i8 0, i64 24, i1 false)
  invoke void @_ZN2cv15warpPerspectiveERKNS_11_InputArrayERKNS_12_OutputArrayES2_NS_5Size_IiEEiiRKNS_7Scalar_IdEE(ptr noundef nonnull align 8 dereferenceable(24) %7, ptr noundef nonnull align 8 dereferenceable(24) %8, ptr noundef nonnull align 8 dereferenceable(24) %9, i64 %.sroa.0.0.insert.insert.i, i32 noundef 1, i32 noundef 0, ptr noundef nonnull align 8 dereferenceable(32) %10)
          to label %36 unwind label %37

36:                                               ; preds = %18
  ret void

37:                                               ; preds = %18
  %38 = landingpad { ptr, i32 }
          cleanup
  call void @_ZN2cv3MatD1Ev(ptr noundef nonnull align 8 dereferenceable(96) %0) #10
  br label %39

39:                                               ; preds = %37, %.body
  %.pn.pn.pn.pn = phi { ptr, i32 } [ %38, %37 ], [ %17, %.body ]
  resume { ptr, i32 } %.pn.pn.pn.pn
}